target datalayout = "e-m:e-p270:32:32-p271:32:32-p272:64:64-i64:64-i128:128-f80:128-n8:16:32:64-S128"
target triple = "x86_64-unknown-linux-gnu"

%"class.hermes::OptValue" = type <{ %"struct.hermes::vm::PropertyFlags", i8, i8 }>
%"struct.hermes::vm::PropertyFlags" = type { %union.anon }
%union.anon = type { %struct.anon }
%struct.anon = type { i16 }
%"class.hermes::vm::JSObject" = type { %"class.hermes::vm::GCCell", %"struct.hermes::vm::ObjectFlags", %"class.hermes::vm::GCPointer", %"class.hermes::vm::GCPointer.159", %"class.hermes::vm::GCPointer.160" }
%"class.hermes::vm::GCCell" = type { %union.anon.1 }
%union.anon.1 = type { %"class.hermes::vm::KindAndSize" }
%"class.hermes::vm::KindAndSize" = type { i32 }
%"struct.hermes::vm::ObjectFlags" = type { i32 }
%"class.hermes::vm::GCPointer" = type { %"class.hermes::vm::GCPointerBase" }
%"class.hermes::vm::GCPointerBase" = type { %"class.hermes::vm::CompressedPointer" }
%"class.hermes::vm::CompressedPointer" = type { %"class.hermes::vm::BasedPointer" }
%"class.hermes::vm::BasedPointer" = type { i32 }
%"class.hermes::vm::GCPointer.159" = type { %"class.hermes::vm::GCPointerBase" }
%"class.hermes::vm::GCPointer.160" = type { %"class.hermes::vm::GCPointerBase" }
%"class.hermes::vm::JSTypedArrayBase" = type { %"class.hermes::vm::JSObject", %"class.hermes::vm::GCPointer.161", i32, i32 }
%"class.hermes::vm::GCPointer.161" = type { %"class.hermes::vm::GCPointerBase" }

; Function Attrs: mustprogress nounwind uwtable
define linkonce_odr hidden noundef ptr @_ZN4llvh16cast_convert_valIN6hermes2vm16JSTypedArrayBaseEPNS2_6GCCellES5_E4doitERKS5_(ptr noundef nonnull align 8 dereferenceable(8) %Val) #0 comdat align 2 {
entry:
  %Val.addr = alloca ptr, align 8
  %Res2 = alloca ptr, align 8
  store ptr %Val, ptr %Val.addr, align 8
  %0 = load ptr, ptr %Val.addr, align 8
  %1 = load ptr, ptr %0, align 8
  store ptr %1, ptr %Res2, align 8
  %2 = load ptr, ptr %Res2, align 8
  ret ptr %2
}

; Function Attrs: mustprogress nounwind uwtable
define linkonce_odr hidden noundef ptr @_ZN4llvh4castIN6hermes2vm16JSTypedArrayBaseENS2_6GCCellEEENS_10cast_rettyIT_PT0_E8ret_typeES8_(ptr noundef %Val) #0 comdat {
entry:
  %Val.addr = alloca ptr, align 8
  store ptr %Val, ptr %Val.addr, align 8
  %call = call noundef ptr @_ZN4llvh16cast_convert_valIN6hermes2vm16JSTypedArrayBaseEPNS2_6GCCellES5_E4doitERKS5_(ptr noundef nonnull align 8 dereferenceable(8) %Val.addr)
  ret ptr %call
}

; Function Attrs: mustprogress nounwind uwtable
define linkonce_odr hidden void @_ZN6hermes8OptValueINS_2vm13PropertyFlagsEEC2ERKS2_(ptr noundef nonnull align 2 dereferenceable(3) %this, ptr noundef nonnull align 2 dereferenceable(2) %v) unnamed_addr #0 comdat align 2 {
entry:
  %this.addr = alloca ptr, align 8
  %v.addr = alloca ptr, align 8
  store ptr %this, ptr %this.addr, align 8
  store ptr %v, ptr %v.addr, align 8
  %this1 = load ptr, ptr %this.addr, align 8
  %value_ = getelementptr inbounds %"class.hermes::OptValue", ptr %this1, i32 0, i32 0
  %0 = load ptr, ptr %v.addr, align 8
  call void @llvm.memcpy.p0.p0.i64(ptr align 2 %value_, ptr align 2 %0, i64 2, i1 false)
  %hasValue_ = getelementptr inbounds %"class.hermes::OptValue", ptr %this1, i32 0, i32 1
  store i8 1, ptr %hasValue_, align 2
  ret void
}

; Function Attrs: mustprogress nounwind uwtable
define linkonce_odr hidden void @_ZN6hermes2vm13PropertyFlagsC2Ev(ptr noundef nonnull align 2 dereferenceable(2) %this) unnamed_addr #0 comdat align 2 {
entry:
  %this.addr = alloca ptr, align 8
  store ptr %this, ptr %this.addr, align 8
  %this1 = load ptr, ptr %this.addr, align 8
  %0 = getelementptr inbounds %"struct.hermes::vm::PropertyFlags", ptr %this1, i32 0, i32 0
  store i16 0, ptr %0, align 2
  ret void
}

; Function Attrs: mustprogress nounwind uwtable
define linkonce_odr hidden void @_ZN6hermes8OptValueINS_2vm13PropertyFlagsEEC2EN4llvh8NoneTypeE(ptr noundef nonnull align 2 dereferenceable(3) %this, i32 noundef %0) unnamed_addr #0 comdat align 2 {
entry:
  %this.addr = alloca ptr, align 8
  %.addr = alloca i32, align 4
  store ptr %this, ptr %this.addr, align 8
  store i32 %0, ptr %.addr, align 4
  %this1 = load ptr, ptr %this.addr, align 8
  %value_ = getelementptr inbounds %"class.hermes::OptValue", ptr %this1, i32 0, i32 0
  call void @_ZN6hermes2vm13PropertyFlagsC2Ev(ptr noundef nonnull align 2 dereferenceable(2) %value_)
  %hasValue_ = getelementptr inbounds %"class.hermes::OptValue", ptr %this1, i32 0, i32 1
  store i8 0, ptr %hasValue_, align 2
  ret void
}

; Function Attrs: mustprogress nounwind uwtable
define linkonce_odr hidden noundef i32 @_ZNK6hermes2vm16JSTypedArrayBase9getLengthEv(ptr noundef nonnull align 4 dereferenceable(32) %this) #0 comdat align 2 {
entry:
  %this.addr = alloca ptr, align 8
  store ptr %this, ptr %this.addr, align 8
  %this1 = load ptr, ptr %this.addr, align 8
  %length_ = getelementptr inbounds %"class.hermes::vm::JSTypedArrayBase", ptr %this1, i32 0, i32 2
  %0 = load i32, ptr %length_, align 4
  ret i32 %0
}

; Function Attrs: mustprogress nounwind uwtable
define linkonce_odr hidden noundef ptr @_ZN6hermes2vm6vmcastINS0_16JSTypedArrayBaseEEEPT_PNS0_6GCCellE(ptr noundef %cell) #0 comdat {
entry:
  %cell.addr = alloca ptr, align 8
  store ptr %cell, ptr %cell.addr, align 8
  %0 = load ptr, ptr %cell.addr, align 8
  %call = call noundef ptr @_ZN4llvh4castIN6hermes2vm16JSTypedArrayBaseENS2_6GCCellEEENS_10cast_rettyIT_PT0_E8ret_typeES8_(ptr noundef %0)
  ret ptr %call
}

; Function Attrs: mustprogress nounwind uwtable
define hidden i32 @_ZN6hermes2vm16JSTypedArrayBase31_getOwnIndexedPropertyFlagsImplEPNS0_8JSObjectERNS0_7RuntimeEj(ptr noundef %selfObj, ptr noundef nonnull align 8 dereferenceable(9832) %runtime, i32 noundef %index) #0 align 2 {
entry:
  %retval = alloca %"class.hermes::OptValue", align 2
  %selfObj.addr = alloca ptr, align 8
  %runtime.addr = alloca ptr, align 8
  %index.addr = alloca i32, align 4
  %self = alloca ptr, align 8
  %indexedElementFlags = alloca %"struct.hermes::vm::PropertyFlags", align 2
  store ptr %selfObj, ptr %selfObj.addr, align 8
  store ptr %runtime, ptr %runtime.addr, align 8
  store i32 %index, ptr %index.addr, align 4
  %0 = load ptr, ptr %selfObj.addr, align 8
  %call = call noundef ptr @_ZN6hermes2vm6vmcastINS0_16JSTypedArrayBaseEEEPT_PNS0_6GCCellE(ptr noundef %0)
  store ptr %call, ptr %self, align 8
  %1 = load i32, ptr %index.addr, align 4
  %2 = load ptr, ptr %self, align 8
  %call1 = call noundef i32 @_ZNK6hermes2vm16JSTypedArrayBase9getLengthEv(ptr noundef nonnull align 4 dereferenceable(32) %2)
  %cmp = icmp uge i32 %1, %call1
  br i1 %cmp, label %if.then, label %if.end

if.then:                                          ; preds = %entry
  call void @_ZN6hermes8OptValueINS_2vm13PropertyFlagsEEC2EN4llvh8NoneTypeE(ptr noundef nonnull align 2 dereferenceable(3) %retval, i32 noundef 1)
  br label %return

if.end:                                           ; preds = %entry
  call void @_ZN6hermes2vm13PropertyFlagsC2Ev(ptr noundef nonnull align 2 dereferenceable(2) %indexedElementFlags)
  %3 = getelementptr inbounds %"struct.hermes::vm::PropertyFlags", ptr %indexedElementFlags, i32 0, i32 0
  %bf.load = load i16, ptr %3, align 2
  %bf.clear = and i16 %bf.load, -3
  %bf.set = or i16 %bf.clear, 2
  store i16 %bf.set, ptr %3, align 2
  %4 = getelementptr inbounds %"struct.hermes::vm::PropertyFlags", ptr %indexedElementFlags, i32 0, i32 0
  %bf.load2 = load i16, ptr %4, align 2
  %bf.clear3 = and i16 %bf.load2, -5
  %bf.set4 = or i16 %bf.clear3, 4
  store i16 %bf.set4, ptr %4, align 2
  %5 = getelementptr inbounds %"struct.hermes::vm::PropertyFlags", ptr %indexedElementFlags, i32 0, i32 0
  %bf.load5 = load i16, ptr %5, align 2
  %bf.clear6 = and i16 %bf.load5, -9
  %bf.set7 = or i16 %bf.clear6, 8
  store i16 %bf.set7, ptr %5, align 2
  %6 = load ptr, ptr %self, align 8
  %flags_ = getelementptr inbounds %"class.hermes::vm::JSObject", ptr %6, i32 0, i32 1
  %bf.load8 = load i32, ptr %flags_, align 4
  %bf.lshr = lshr i32 %bf.load8, 1
  %bf.clear9 = and i32 %bf.lshr, 1
  %tobool = icmp ne i32 %bf.clear9, 0
  br i1 %tobool, label %if.then10, label %if.end24

if.then10:                                        ; preds = %if.end
  %7 = getelementptr inbounds %"struct.hermes::vm::PropertyFlags", ptr %indexedElementFlags, i32 0, i32 0
  %bf.load11 = load i16, ptr %7, align 2
  %bf.clear12 = and i16 %bf.load11, -9
  %bf.set13 = or i16 %bf.clear12, 0
  store i16 %bf.set13, ptr %7, align 2
  %8 = load ptr, ptr %self, align 8
  %flags_14 = getelementptr inbounds %"class.hermes::vm::JSObject", ptr %8, i32 0, i32 1
  %bf.load15 = load i32, ptr %flags_14, align 4
  %bf.lshr16 = lshr i32 %bf.load15, 2
  %bf.clear17 = and i32 %bf.lshr16, 1
  %tobool18 = icmp ne i32 %bf.clear17, 0
  br i1 %tobool18, label %if.then19, label %if.end23

if.then19:                                        ; preds = %if.then10
  %9 = getelementptr inbounds %"struct.hermes::vm::PropertyFlags", ptr %indexedElementFlags, i32 0, i32 0
  %bf.load20 = load i16, ptr %9, align 2
  %bf.clear21 = and i16 %bf.load20, -5
  %bf.set22 = or i16 %bf.clear21, 0
  store i16 %bf.set22, ptr %9, align 2
  br label %if.end23

if.end23:                                         ; preds = %if.then19, %if.then10
  br label %if.end24

if.end24:                                         ; preds = %if.end23, %if.end
  call void @_ZN6hermes8OptValueINS_2vm13PropertyFlagsEEC2ERKS2_(ptr noundef nonnull align 2 dereferenceable(3) %retval, ptr noundef nonnull align 2 dereferenceable(2) %indexedElementFlags)
  br label %return

return:                                           ; preds = %if.end24, %if.then
  %10 = load i32, ptr %retval, align 2
  ret i32 %10
}